target datalayout = "e-m:e-p270:32:32-p271:32:32-p272:64:64-i64:64-i128:128-f80:128-n8:16:32:64-S128"
target triple = "x86_64-pc-linux-gnu"

%struct.AVFilterLink = type { ptr, ptr, ptr, ptr, i32, i32, i32, i32, %struct.AVRational, i32, i32, i32, %struct.AVChannelLayout, %struct.AVRational, ptr, i32, %struct.AVFilterFormatsConfig, %struct.AVFilterFormatsConfig }
%struct.AVChannelLayout = type { i32, i32, %union.anon.1, ptr }
%union.anon.1 = type { i64 }
%struct.AVRational = type { i32, i32 }
%struct.AVFilterFormatsConfig = type { ptr, ptr, ptr, ptr, ptr }
%struct.AVFilterContext = type { ptr, ptr, ptr, ptr, ptr, i32, ptr, ptr, i32, ptr, ptr, i32, i32, ptr, ptr, ptr, ptr, i32, ptr, i32, i32 }
%struct.ColorLevelsContext = type { ptr, [4 x %struct.Range], i32, i32, i32, i32, i32, i32, i32, [4 x i8], i32, [2 x ptr] }
%struct.Range = type { double, double, double, double }
%struct.AVPixFmtDescriptor = type { ptr, i8, i8, i8, i64, [4 x %struct.AVComponentDescriptor], ptr }
%struct.AVComponentDescriptor = type { i32, i32, i32, i32, i32 }

; Function Attrs: nounwind uwtable
define internal i32 @config_input(ptr noundef %0) #1 {
  %2 = alloca ptr, align 8
  %3 = alloca ptr, align 8
  %4 = alloca ptr, align 8
  %5 = alloca ptr, align 8
  store ptr %0, ptr %2, align 8, !tbaa !4
  call void @llvm.lifetime.start.p0(i64 8, ptr %3) #8
  %6 = load ptr, ptr %2, align 8, !tbaa !4
  %7 = getelementptr inbounds nuw %struct.AVFilterLink, ptr %6, i32 0, i32 2
  %8 = load ptr, ptr %7, align 8, !tbaa !11
  store ptr %8, ptr %3, align 8, !tbaa !23
  call void @llvm.lifetime.start.p0(i64 8, ptr %4) #8
  %9 = load ptr, ptr %3, align 8, !tbaa !23
  %10 = getelementptr inbounds nuw %struct.AVFilterContext, ptr %9, i32 0, i32 9
  %11 = load ptr, ptr %10, align 8, !tbaa !24
  store ptr %11, ptr %4, align 8, !tbaa !34
  call void @llvm.lifetime.start.p0(i64 8, ptr %5) #8
  %12 = load ptr, ptr %2, align 8, !tbaa !4
  %13 = getelementptr inbounds nuw %struct.AVFilterLink, ptr %12, i32 0, i32 5
  %14 = load i32, ptr %13, align 4, !tbaa !86
  %15 = call ptr @av_pix_fmt_desc_get(i32 noundef %14)
  store ptr %15, ptr %5, align 8, !tbaa !87
  %16 = load ptr, ptr %5, align 8, !tbaa !87
  %17 = getelementptr inbounds nuw %struct.AVPixFmtDescriptor, ptr %16, i32 0, i32 1
  %18 = load i8, ptr %17, align 8, !tbaa !89
  %19 = zext i8 %18 to i32
  %20 = load ptr, ptr %4, align 8, !tbaa !34
  %21 = getelementptr inbounds nuw %struct.ColorLevelsContext, ptr %20, i32 0, i32 3
  store i32 %19, ptr %21, align 4, !tbaa !50
  %22 = load ptr, ptr %5, align 8, !tbaa !87
  %23 = getelementptr inbounds nuw %struct.AVPixFmtDescriptor, ptr %22, i32 0, i32 4
  %24 = load i64, ptr %23, align 8, !tbaa !92
  %25 = and i64 %24, 16
  %26 = trunc i64 %25 to i32
  %27 = load ptr, ptr %4, align 8, !tbaa !34
  %28 = getelementptr inbounds nuw %struct.ColorLevelsContext, ptr %27, i32 0, i32 6
  store i32 %26, ptr %28, align 8, !tbaa !46
  %29 = load ptr, ptr %5, align 8, !tbaa !87
  %30 = getelementptr inbounds nuw %struct.AVPixFmtDescriptor, ptr %29, i32 0, i32 5
  %31 = getelementptr inbounds [4 x %struct.AVComponentDescriptor], ptr %30, i64 0, i64 0
  %32 = getelementptr inbounds nuw %struct.AVComponentDescriptor, ptr %31, i32 0, i32 4
  %33 = load i32, ptr %32, align 8, !tbaa !93
  %34 = load ptr, ptr %4, align 8, !tbaa !34
  %35 = getelementptr inbounds nuw %struct.ColorLevelsContext, ptr %34, i32 0, i32 4
  store i32 %33, ptr %35, align 8, !tbaa !95
  %36 = load ptr, ptr %4, align 8, !tbaa !34
  %37 = getelementptr inbounds nuw %struct.ColorLevelsContext, ptr %36, i32 0, i32 4
  %38 = load i32, ptr %37, align 8, !tbaa !95
  %39 = shl i32 1, %38
  %40 = sub nsw i32 %39, 1
  %41 = load ptr, ptr %4, align 8, !tbaa !34
  %42 = getelementptr inbounds nuw %struct.ColorLevelsContext, ptr %41, i32 0, i32 5
  store i32 %40, ptr %42, align 4, !tbaa !96
  %43 = load ptr, ptr %5, align 8, !tbaa !87
  %44 = getelementptr inbounds nuw %struct.AVPixFmtDescriptor, ptr %43, i32 0, i32 5
  %45 = getelementptr inbounds [4 x %struct.AVComponentDescriptor], ptr %44, i64 0, i64 0
  %46 = getelementptr inbounds nuw %struct.AVComponentDescriptor, ptr %45, i32 0, i32 4
  %47 = load i32, ptr %46, align 8, !tbaa !93
  %48 = add nsw i32 %47, 7
  %49 = ashr i32 %48, 3
  %50 = load ptr, ptr %4, align 8, !tbaa !34
  %51 = getelementptr inbounds nuw %struct.ColorLevelsContext, ptr %50, i32 0, i32 7
  store i32 %49, ptr %51, align 4, !tbaa !49
  %52 = load ptr, ptr %4, align 8, !tbaa !34
  %53 = getelementptr inbounds nuw %struct.ColorLevelsContext, ptr %52, i32 0, i32 6
  %54 = load i32, ptr %53, align 8, !tbaa !46
  %55 = icmp ne i32 %54, 0
  br i1 %55, label %56, label %57

56:                                               ; preds = %1
  br label %67

57:                                               ; preds = %1
  %58 = load ptr, ptr %5, align 8, !tbaa !87
  %59 = call i32 @av_get_padded_bits_per_pixel(ptr noundef %58)
  %60 = load ptr, ptr %4, align 8, !tbaa !34
  %61 = getelementptr inbounds nuw %struct.ColorLevelsContext, ptr %60, i32 0, i32 7
  %62 = load i32, ptr %61, align 4, !tbaa !49
  %63 = icmp eq i32 %62, 2
  %64 = zext i1 %63 to i32
  %65 = add nsw i32 3, %64
  %66 = ashr i32 %59, %65
  br label %67

67:                                               ; preds = %57, %56
  %68 = phi i32 [ 1, %56 ], [ %66, %57 ]
  %69 = load ptr, ptr %4, align 8, !tbaa !34
  %70 = getelementptr inbounds nuw %struct.ColorLevelsContext, ptr %69, i32 0, i32 8
  store i32 %68, ptr %70, align 8, !tbaa !37
  %71 = load ptr, ptr %2, align 8, !tbaa !4
  %72 = getelementptr inbounds nuw %struct.AVFilterLink, ptr %71, i32 0, i32 6
  %73 = load i32, ptr %72, align 8, !tbaa !40
  %74 = load ptr, ptr %4, align 8, !tbaa !34
  %75 = getelementptr inbounds nuw %struct.ColorLevelsContext, ptr %74, i32 0, i32 8
  %76 = load i32, ptr %75, align 8, !tbaa !37
  %77 = mul nsw i32 %73, %76
  %78 = load ptr, ptr %4, align 8, !tbaa !34
  %79 = getelementptr inbounds nuw %struct.ColorLevelsContext, ptr %78, i32 0, i32 10
  store i32 %77, ptr %79, align 8, !tbaa !59
  %80 = load ptr, ptr %4, align 8, !tbaa !34
  %81 = getelementptr inbounds nuw %struct.ColorLevelsContext, ptr %80, i32 0, i32 9
  %82 = getelementptr inbounds [4 x i8], ptr %81, i64 0, i64 0
  %83 = load ptr, ptr %2, align 8, !tbaa !4
  %84 = getelementptr inbounds nuw %struct.AVFilterLink, ptr %83, i32 0, i32 5
  %85 = load i32, ptr %84, align 4, !tbaa !86
  %86 = call i32 @ff_fill_rgba_map(ptr noundef %82, i32 noundef %85)
  %87 = load ptr, ptr %4, align 8, !tbaa !34
  %88 = getelementptr inbounds nuw %struct.ColorLevelsContext, ptr %87, i32 0, i32 6
  %89 = load i32, ptr %88, align 8, !tbaa !46
  %90 = icmp ne i32 %89, 0
  br i1 %90, label %110, label %91

91:                                               ; preds = %67
  %92 = load ptr, ptr %4, align 8, !tbaa !34
  %93 = getelementptr inbounds nuw %struct.ColorLevelsContext, ptr %92, i32 0, i32 11
  %94 = getelementptr inbounds [2 x ptr], ptr %93, i64 0, i64 0
  store ptr @colorlevels_slice_8, ptr %94, align 8, !tbaa !85
  %95 = load ptr, ptr %4, align 8, !tbaa !34
  %96 = getelementptr inbounds nuw %struct.ColorLevelsContext, ptr %95, i32 0, i32 11
  %97 = getelementptr inbounds [2 x ptr], ptr %96, i64 0, i64 1
  store ptr @colorlevels_preserve_slice_8, ptr %97, align 8, !tbaa !85
  %98 = load ptr, ptr %4, align 8, !tbaa !34
  %99 = getelementptr inbounds nuw %struct.ColorLevelsContext, ptr %98, i32 0, i32 7
  %100 = load i32, ptr %99, align 4, !tbaa !49
  %101 = icmp eq i32 %100, 2
  br i1 %101, label %102, label %109

102:                                              ; preds = %91
  %103 = load ptr, ptr %4, align 8, !tbaa !34
  %104 = getelementptr inbounds nuw %struct.ColorLevelsContext, ptr %103, i32 0, i32 11
  %105 = getelementptr inbounds [2 x ptr], ptr %104, i64 0, i64 0
  store ptr @colorlevels_slice_16, ptr %105, align 8, !tbaa !85
  %106 = load ptr, ptr %4, align 8, !tbaa !34
  %107 = getelementptr inbounds nuw %struct.ColorLevelsContext, ptr %106, i32 0, i32 11
  %108 = getelementptr inbounds [2 x ptr], ptr %107, i64 0, i64 1
  store ptr @colorlevels_preserve_slice_16, ptr %108, align 8, !tbaa !85
  br label %109

109:                                              ; preds = %102, %91
  br label %164

110:                                              ; preds = %67
  %111 = load ptr, ptr %4, align 8, !tbaa !34
  %112 = getelementptr inbounds nuw %struct.ColorLevelsContext, ptr %111, i32 0, i32 4
  %113 = load i32, ptr %112, align 8, !tbaa !95
  switch i32 %113, label %163 [
    i32 8, label %114
    i32 9, label %121
    i32 10, label %128
    i32 12, label %135
    i32 14, label %142
    i32 16, label %149
    i32 32, label %156
  ]

114:                                              ; preds = %110
  %115 = load ptr, ptr %4, align 8, !tbaa !34
  %116 = getelementptr inbounds nuw %struct.ColorLevelsContext, ptr %115, i32 0, i32 11
  %117 = getelementptr inbounds [2 x ptr], ptr %116, i64 0, i64 0
  store ptr @colorlevels_slice_8_planar, ptr %117, align 8, !tbaa !85
  %118 = load ptr, ptr %4, align 8, !tbaa !34
  %119 = getelementptr inbounds nuw %struct.ColorLevelsContext, ptr %118, i32 0, i32 11
  %120 = getelementptr inbounds [2 x ptr], ptr %119, i64 0, i64 1
  store ptr @colorlevels_preserve_slice_8_planar, ptr %120, align 8, !tbaa !85
  br label %163

121:                                              ; preds = %110
  %122 = load ptr, ptr %4, align 8, !tbaa !34
  %123 = getelementptr inbounds nuw %struct.ColorLevelsContext, ptr %122, i32 0, i32 11
  %124 = getelementptr inbounds [2 x ptr], ptr %123, i64 0, i64 0
  store ptr @colorlevels_slice_9_planar, ptr %124, align 8, !tbaa !85
  %125 = load ptr, ptr %4, align 8, !tbaa !34
  %126 = getelementptr inbounds nuw %struct.ColorLevelsContext, ptr %125, i32 0, i32 11
  %127 = getelementptr inbounds [2 x ptr], ptr %126, i64 0, i64 1
  store ptr @colorlevels_preserve_slice_9_planar, ptr %127, align 8, !tbaa !85
  br label %163

128:                                              ; preds = %110
  %129 = load ptr, ptr %4, align 8, !tbaa !34
  %130 = getelementptr inbounds nuw %struct.ColorLevelsContext, ptr %129, i32 0, i32 11
  %131 = getelementptr inbounds [2 x ptr], ptr %130, i64 0, i64 0
  store ptr @colorlevels_slice_10_planar, ptr %131, align 8, !tbaa !85
  %132 = load ptr, ptr %4, align 8, !tbaa !34
  %133 = getelementptr inbounds nuw %struct.ColorLevelsContext, ptr %132, i32 0, i32 11
  %134 = getelementptr inbounds [2 x ptr], ptr %133, i64 0, i64 1
  store ptr @colorlevels_preserve_slice_10_planar, ptr %134, align 8, !tbaa !85
  br label %163

135:                                              ; preds = %110
  %136 = load ptr, ptr %4, align 8, !tbaa !34
  %137 = getelementptr inbounds nuw %struct.ColorLevelsContext, ptr %136, i32 0, i32 11
  %138 = getelementptr inbounds [2 x ptr], ptr %137, i64 0, i64 0
  store ptr @colorlevels_slice_12_planar, ptr %138, align 8, !tbaa !85
  %139 = load ptr, ptr %4, align 8, !tbaa !34
  %140 = getelementptr inbounds nuw %struct.ColorLevelsContext, ptr %139, i32 0, i32 11
  %141 = getelementptr inbounds [2 x ptr], ptr %140, i64 0, i64 1
  store ptr @colorlevels_preserve_slice_12_planar, ptr %141, align 8, !tbaa !85
  br label %163

142:                                              ; preds = %110
  %143 = load ptr, ptr %4, align 8, !tbaa !34
  %144 = getelementptr inbounds nuw %struct.ColorLevelsContext, ptr %143, i32 0, i32 11
  %145 = getelementptr inbounds [2 x ptr], ptr %144, i64 0, i64 0
  store ptr @colorlevels_slice_14_planar, ptr %145, align 8, !tbaa !85
  %146 = load ptr, ptr %4, align 8, !tbaa !34
  %147 = getelementptr inbounds nuw %struct.ColorLevelsContext, ptr %146, i32 0, i32 11
  %148 = getelementptr inbounds [2 x ptr], ptr %147, i64 0, i64 1
  store ptr @colorlevels_preserve_slice_14_planar, ptr %148, align 8, !tbaa !85
  br label %163

149:                                              ; preds = %110
  %150 = load ptr, ptr %4, align 8, !tbaa !34
  %151 = getelementptr inbounds nuw %struct.ColorLevelsContext, ptr %150, i32 0, i32 11
  %152 = getelementptr inbounds [2 x ptr], ptr %151, i64 0, i64 0
  store ptr @colorlevels_slice_16_planar, ptr %152, align 8, !tbaa !85
  %153 = load ptr, ptr %4, align 8, !tbaa !34
  %154 = getelementptr inbounds nuw %struct.ColorLevelsContext, ptr %153, i32 0, i32 11
  %155 = getelementptr inbounds [2 x ptr], ptr %154, i64 0, i64 1
  store ptr @colorlevels_preserve_slice_16_planar, ptr %155, align 8, !tbaa !85
  br label %163

156:                                              ; preds = %110
  %157 = load ptr, ptr %4, align 8, !tbaa !34
  %158 = getelementptr inbounds nuw %struct.ColorLevelsContext, ptr %157, i32 0, i32 11
  %159 = getelementptr inbounds [2 x ptr], ptr %158, i64 0, i64 0
  store ptr @colorlevels_slice_32_planar, ptr %159, align 8, !tbaa !85
  %160 = load ptr, ptr %4, align 8, !tbaa !34
  %161 = getelementptr inbounds nuw %struct.ColorLevelsContext, ptr %160, i32 0, i32 11
  %162 = getelementptr inbounds [2 x ptr], ptr %161, i64 0, i64 1
  store ptr @colorlevels_preserve_slice_32_planar, ptr %162, align 8, !tbaa !85
  br label %163

163:                                              ; preds = %110, %156, %149, %142, %135, %128, %121, %114
  br label %164

164:                                              ; preds = %163, %109
  call void @llvm.lifetime.end.p0(i64 8, ptr %5) #8
  call void @llvm.lifetime.end.p0(i64 8, ptr %4) #8
  call void @llvm.lifetime.end.p0(i64 8, ptr %3) #8
  ret i32 0
}