; Function Attrs: nounwind uwtable
define internal noundef i32 @config_input(ptr noundef readonly captures(none) %0) #1 {
  %2 = getelementptr inbounds nuw i8, ptr %0, i64 16
  %3 = load ptr, ptr %2, align 8, !tbaa !9
  %4 = getelementptr inbounds nuw i8, ptr %3, i64 72
  %5 = load ptr, ptr %4, align 8, !tbaa !21
  %6 = getelementptr inbounds nuw i8, ptr %0, i64 36
  %7 = load i32, ptr %6, align 4, !tbaa !77
  %8 = tail call ptr @av_pix_fmt_desc_get(i32 noundef %7) #8
  %9 = getelementptr inbounds nuw i8, ptr %8, i64 8
  %10 = load i8, ptr %9, align 8, !tbaa !78
  %11 = zext i8 %10 to i32
  %12 = getelementptr inbounds nuw i8, ptr %5, i64 140
  store i32 %11, ptr %12, align 4, !tbaa !47
  %13 = getelementptr inbounds nuw i8, ptr %8, i64 16
  %14 = load i64, ptr %13, align 8, !tbaa !81
  %15 = trunc i64 %14 to i32
  %16 = and i32 %15, 16
  %17 = getelementptr inbounds nuw i8, ptr %5, i64 152
  store i32 %16, ptr %17, align 8, !tbaa !43
  %18 = getelementptr inbounds nuw i8, ptr %8, i64 40
  %19 = load i32, ptr %18, align 8, !tbaa !82
  %20 = getelementptr inbounds nuw i8, ptr %5, i64 144
  store i32 %19, ptr %20, align 8, !tbaa !84
  %notmask = shl nsw i32 -1, %19
  %21 = xor i32 %notmask, -1
  %22 = getelementptr inbounds nuw i8, ptr %5, i64 148
  store i32 %21, ptr %22, align 4, !tbaa !85
  %23 = add nsw i32 %19, 7
  %24 = ashr i32 %23, 3
  %25 = getelementptr inbounds nuw i8, ptr %5, i64 156
  store i32 %24, ptr %25, align 4, !tbaa !45
  %.not = icmp eq i32 %16, 0
  br i1 %.not, label %26, label %32

26:                                               ; preds = %1
  %27 = tail call i32 @av_get_padded_bits_per_pixel(ptr noundef nonnull %8) #8
  %28 = load i32, ptr %25, align 4, !tbaa !45
  %29 = icmp eq i32 %28, 2
  %30 = select i1 %29, i32 4, i32 3
  %31 = ashr i32 %27, %30
  br label %32

32:                                               ; preds = %1, %26
  %33 = phi i32 [ %31, %26 ], [ 1, %1 ]
  %34 = getelementptr inbounds nuw i8, ptr %5, i64 160
  store i32 %33, ptr %34, align 8, !tbaa !34
  %35 = getelementptr inbounds nuw i8, ptr %0, i64 40
  %36 = load i32, ptr %35, align 8, !tbaa !36
  %37 = mul nsw i32 %36, %33
  %38 = getelementptr inbounds nuw i8, ptr %5, i64 168
  store i32 %37, ptr %38, align 8, !tbaa !54
  %39 = getelementptr inbounds nuw i8, ptr %5, i64 164
  %40 = load i32, ptr %6, align 4, !tbaa !77
  %41 = tail call i32 @ff_fill_rgba_map(ptr noundef nonnull %39, i32 noundef %40) #8
  %42 = load i32, ptr %17, align 8, !tbaa !43
  %.not43 = icmp eq i32 %42, 0
  br i1 %.not43, label %43, label %49

43:                                               ; preds = %32
  %44 = getelementptr inbounds nuw i8, ptr %5, i64 176
  store ptr @colorlevels_slice_8, ptr %44, align 8, !tbaa !76
  %45 = getelementptr inbounds nuw i8, ptr %5, i64 184
  store ptr @colorlevels_preserve_slice_8, ptr %45, align 8, !tbaa !76
  %46 = load i32, ptr %25, align 4, !tbaa !45
  %47 = icmp eq i32 %46, 2
  br i1 %47, label %48, label %72

48:                                               ; preds = %43
  store ptr @colorlevels_slice_16, ptr %44, align 8, !tbaa !76
  store ptr @colorlevels_preserve_slice_16, ptr %45, align 8, !tbaa !76
  br label %72

49:                                               ; preds = %32
  %50 = load i32, ptr %20, align 8, !tbaa !84
  switch i32 %50, label %72 [
    i32 8, label %51
    i32 9, label %54
    i32 10, label %57
    i32 12, label %60
    i32 14, label %63
    i32 16, label %66
    i32 32, label %69
  ]

51:                                               ; preds = %49
  %52 = getelementptr inbounds nuw i8, ptr %5, i64 176
  store ptr @colorlevels_slice_8_planar, ptr %52, align 8, !tbaa !76
  %53 = getelementptr inbounds nuw i8, ptr %5, i64 184
  store ptr @colorlevels_preserve_slice_8_planar, ptr %53, align 8, !tbaa !76
  br label %72

54:                                               ; preds = %49
  %55 = getelementptr inbounds nuw i8, ptr %5, i64 176
  store ptr @colorlevels_slice_9_planar, ptr %55, align 8, !tbaa !76
  %56 = getelementptr inbounds nuw i8, ptr %5, i64 184
  store ptr @colorlevels_preserve_slice_9_planar, ptr %56, align 8, !tbaa !76
  br label %72

57:                                               ; preds = %49
  %58 = getelementptr inbounds nuw i8, ptr %5, i64 176
  store ptr @colorlevels_slice_10_planar, ptr %58, align 8, !tbaa !76
  %59 = getelementptr inbounds nuw i8, ptr %5, i64 184
  store ptr @colorlevels_preserve_slice_10_planar, ptr %59, align 8, !tbaa !76
  br label %72

60:                                               ; preds = %49
  %61 = getelementptr inbounds nuw i8, ptr %5, i64 176
  store ptr @colorlevels_slice_12_planar, ptr %61, align 8, !tbaa !76
  %62 = getelementptr inbounds nuw i8, ptr %5, i64 184
  store ptr @colorlevels_preserve_slice_12_planar, ptr %62, align 8, !tbaa !76
  br label %72

63:                                               ; preds = %49
  %64 = getelementptr inbounds nuw i8, ptr %5, i64 176
  store ptr @colorlevels_slice_14_planar, ptr %64, align 8, !tbaa !76
  %65 = getelementptr inbounds nuw i8, ptr %5, i64 184
  store ptr @colorlevels_preserve_slice_14_planar, ptr %65, align 8, !tbaa !76
  br label %72

66:                                               ; preds = %49
  %67 = getelementptr inbounds nuw i8, ptr %5, i64 176
  store ptr @colorlevels_slice_16_planar, ptr %67, align 8, !tbaa !76
  %68 = getelementptr inbounds nuw i8, ptr %5, i64 184
  store ptr @colorlevels_preserve_slice_16_planar, ptr %68, align 8, !tbaa !76
  br label %72

69:                                               ; preds = %49
  %70 = getelementptr inbounds nuw i8, ptr %5, i64 176
  store ptr @colorlevels_slice_32_planar, ptr %70, align 8, !tbaa !76
  %71 = getelementptr inbounds nuw i8, ptr %5, i64 184
  store ptr @colorlevels_preserve_slice_32_planar, ptr %71, align 8, !tbaa !76
  br label %72

72:                                               ; preds = %49, %51, %54, %57, %60, %63, %66, %69, %43, %48
  ret i32 0
}